; Function Attrs: mustprogress uwtable
define void @_ZN8QuantLib21ProjectedCostFunctionC2ERKNS_12CostFunctionERKNS_5ArrayERKSt6vectorIbSaIbEE(ptr noundef nonnull align 8 dereferenceable(104) %this, ptr noundef nonnull align 8 dereferenceable(8) %costFunction, ptr noundef nonnull align 8 dereferenceable(16) %parameterValues, ptr noundef nonnull align 8 dereferenceable(40) %fixParameters) unnamed_addr #0 align 2 personality ptr @__gxx_personality_v0 {
entry:
  %agg.tmp = alloca %"class.std::vector", align 8
  store ptr getelementptr inbounds inrange(-16, 72) (i8, ptr @_ZTVN8QuantLib12CostFunctionE, i64 16), ptr %this, align 8, !tbaa !3
  %0 = getelementptr inbounds i8, ptr %this, i64 8
  call void @_ZNSt6vectorIbSaIbEEC2ERKS1_(ptr noundef nonnull align 8 dereferenceable(40) %agg.tmp, ptr noundef nonnull align 8 dereferenceable(40) %fixParameters)
  invoke void @_ZN8QuantLib10ProjectionC2ERKNS_5ArrayESt6vectorIbSaIbEE(ptr noundef nonnull align 8 dereferenceable(88) %0, ptr noundef nonnull align 8 dereferenceable(16) %parameterValues, ptr noundef nonnull %agg.tmp)
          to label %invoke.cont3 unwind label %lpad2

invoke.cont3:                                     ; preds = %entry
  %1 = load ptr, ptr %agg.tmp, align 8, !tbaa !6
  %tobool.not.i.i = icmp eq ptr %1, null
  br i1 %tobool.not.i.i, label %_ZNSt13_Bvector_baseISaIbEED2Ev.exit, label %if.then.i.i

if.then.i.i:                                      ; preds = %invoke.cont3
  %_M_end_of_storage.i.i.i = getelementptr inbounds nuw i8, ptr %agg.tmp, i64 32
  %2 = load ptr, ptr %_M_end_of_storage.i.i.i, align 8, !tbaa !11
  %sub.ptr.lhs.cast.i.i = ptrtoint ptr %2 to i64
  %sub.ptr.rhs.cast.i.i = ptrtoint ptr %1 to i64
  %sub.ptr.sub.i.i = sub i64 %sub.ptr.lhs.cast.i.i, %sub.ptr.rhs.cast.i.i
  %sub.ptr.div.i.i = ashr exact i64 %sub.ptr.sub.i.i, 3
  %idx.neg.i.i = sub nsw i64 0, %sub.ptr.div.i.i
  %add.ptr.i.i = getelementptr inbounds i64, ptr %2, i64 %idx.neg.i.i
  call void @_ZdlPvm(ptr noundef %add.ptr.i.i, i64 noundef %sub.ptr.sub.i.i) #14
  br label %_ZNSt13_Bvector_baseISaIbEED2Ev.exit

_ZNSt13_Bvector_baseISaIbEED2Ev.exit:             ; preds = %invoke.cont3, %if.then.i.i
  store ptr getelementptr inbounds inrange(-16, 72) (i8, ptr @_ZTVN8QuantLib21ProjectedCostFunctionE, i64 16), ptr %this, align 8, !tbaa !3
  store ptr getelementptr inbounds inrange(-16, 32) (i8, ptr @_ZTVN8QuantLib21ProjectedCostFunctionE, i64 104), ptr %0, align 8, !tbaa !3
  %costFunction_ = getelementptr inbounds nuw i8, ptr %this, i64 96
  store ptr %costFunction, ptr %costFunction_, align 8, !tbaa !14
  ret void

lpad2:                                            ; preds = %entry
  %3 = landingpad { ptr, i32 }
          cleanup
  %4 = load ptr, ptr %agg.tmp, align 8, !tbaa !6
  %tobool.not.i.i2 = icmp eq ptr %4, null
  br i1 %tobool.not.i.i2, label %ehcleanup, label %if.then.i.i3

if.then.i.i3:                                     ; preds = %lpad2
  %_M_end_of_storage.i.i.i4 = getelementptr inbounds nuw i8, ptr %agg.tmp, i64 32
  %5 = load ptr, ptr %_M_end_of_storage.i.i.i4, align 8, !tbaa !11
  %sub.ptr.lhs.cast.i.i5 = ptrtoint ptr %5 to i64
  %sub.ptr.rhs.cast.i.i6 = ptrtoint ptr %4 to i64
  %sub.ptr.sub.i.i7 = sub i64 %sub.ptr.lhs.cast.i.i5, %sub.ptr.rhs.cast.i.i6
  %sub.ptr.div.i.i8 = ashr exact i64 %sub.ptr.sub.i.i7, 3
  %idx.neg.i.i9 = sub nsw i64 0, %sub.ptr.div.i.i8
  %add.ptr.i.i10 = getelementptr inbounds i64, ptr %5, i64 %idx.neg.i.i9
  call void @_ZdlPvm(ptr noundef %add.ptr.i.i10, i64 noundef %sub.ptr.sub.i.i7) #14
  br label %ehcleanup

ehcleanup:                                        ; preds = %if.then.i.i3, %lpad2
  resume { ptr, i32 } %3
}